target datalayout = "e-m:e-p270:32:32-p271:32:32-p272:64:64-i64:64-i128:128-f80:128-n8:16:32:64-S128"
target triple = "x86_64-pc-linux-gnu"

%struct.luaL_Stream = type { ptr, ptr }

@.str.16 = private unnamed_addr constant [6 x i8] c"FILE*\00", align 1
@.str.21 = private unnamed_addr constant [19 x i8] c"too many arguments\00", align 1
@.str.22 = private unnamed_addr constant [23 x i8] c"file is already closed\00", align 1
@.str.23 = private unnamed_addr constant [3 x i8] c"%s\00", align 1

; Function Attrs: nounwind uwtable
define internal i32 @aux_close(ptr noundef %0) #0 {
  %2 = alloca ptr, align 8
  %3 = alloca ptr, align 8
  %4 = alloca ptr, align 8
  store ptr %0, ptr %2, align 8, !tbaa !4
  call void @llvm.lifetime.start.p0(i64 8, ptr %3) #8
  %5 = load ptr, ptr %2, align 8, !tbaa !4
  %6 = call ptr @luaL_checkudata(ptr noundef %5, i32 noundef 1, ptr noundef @.str.16)
  store ptr %6, ptr %3, align 8, !tbaa !13
  call void @llvm.lifetime.start.p0(i64 8, ptr %4) #8
  %7 = load ptr, ptr %3, align 8, !tbaa !13
  %8 = getelementptr inbounds nuw %struct.luaL_Stream, ptr %7, i32 0, i32 1
  %9 = load ptr, ptr %8, align 8, !tbaa !17
  store volatile ptr %9, ptr %4, align 8, !tbaa !21
  %10 = load ptr, ptr %3, align 8, !tbaa !13
  %11 = getelementptr inbounds nuw %struct.luaL_Stream, ptr %10, i32 0, i32 1
  store ptr null, ptr %11, align 8, !tbaa !17
  %12 = load volatile ptr, ptr %4, align 8, !tbaa !21
  %13 = load ptr, ptr %2, align 8, !tbaa !4
  %14 = call i32 %12(ptr noundef %13)
  call void @llvm.lifetime.end.p0(i64 8, ptr %4) #8
  call void @llvm.lifetime.end.p0(i64 8, ptr %3) #8
  ret i32 %14
}

; Function Attrs: nounwind uwtable
define internal i32 @io_readline(ptr noundef %0) #0 {
  %2 = alloca i32, align 4
  %3 = alloca ptr, align 8
  %4 = alloca ptr, align 8
  %5 = alloca i32, align 4
  %6 = alloca i32, align 4
  %7 = alloca i32, align 4
  store ptr %0, ptr %3, align 8, !tbaa !4
  call void @llvm.lifetime.start.p0(i64 8, ptr %4) #8
  %8 = load ptr, ptr %3, align 8, !tbaa !4
  %9 = call ptr @lua_touserdata(ptr noundef %8, i32 noundef -1001001)
  store ptr %9, ptr %4, align 8, !tbaa !13
  call void @llvm.lifetime.start.p0(i64 4, ptr %5) #8
  call void @llvm.lifetime.start.p0(i64 4, ptr %6) #8
  %10 = load ptr, ptr %3, align 8, !tbaa !4
  %11 = call i64 @lua_tointegerx(ptr noundef %10, i32 noundef -1001002, ptr noundef null)
  %12 = trunc i64 %11 to i32
  store i32 %12, ptr %6, align 4, !tbaa !18
  %13 = load ptr, ptr %4, align 8, !tbaa !13
  %14 = getelementptr inbounds nuw %struct.luaL_Stream, ptr %13, i32 0, i32 1
  %15 = load ptr, ptr %14, align 8, !tbaa !17
  %16 = icmp eq ptr %15, null
  br i1 %16, label %17, label %20

17:                                               ; preds = %1
  %18 = load ptr, ptr %3, align 8, !tbaa !4
  %19 = call i32 (ptr, ptr, ...) @luaL_error(ptr noundef %18, ptr noundef @.str.22)
  store i32 %19, ptr %2, align 4
  store i32 1, ptr %7, align 4
  br label %70

20:                                               ; preds = %1
  %21 = load ptr, ptr %3, align 8, !tbaa !4
  call void @lua_settop(ptr noundef %21, i32 noundef 1)
  %22 = load ptr, ptr %3, align 8, !tbaa !4
  %23 = load i32, ptr %6, align 4, !tbaa !18
  call void @luaL_checkstack(ptr noundef %22, i32 noundef %23, ptr noundef @.str.21)
  store i32 1, ptr %5, align 4, !tbaa !18
  br label %24

24:                                               ; preds = %33, %20
  %25 = load i32, ptr %5, align 4, !tbaa !18
  %26 = load i32, ptr %6, align 4, !tbaa !18
  %27 = icmp sle i32 %25, %26
  br i1 %27, label %28, label %36

28:                                               ; preds = %24
  %29 = load ptr, ptr %3, align 8, !tbaa !4
  %30 = load i32, ptr %5, align 4, !tbaa !18
  %31 = add nsw i32 3, %30
  %32 = sub nsw i32 -1001000, %31
  call void @lua_pushvalue(ptr noundef %29, i32 noundef %32)
  br label %33

33:                                               ; preds = %28
  %34 = load i32, ptr %5, align 4, !tbaa !18
  %35 = add nsw i32 %34, 1
  store i32 %35, ptr %5, align 4, !tbaa !18
  br label %24

36:                                               ; preds = %24
  %37 = load ptr, ptr %3, align 8, !tbaa !4
  %38 = load ptr, ptr %4, align 8, !tbaa !13
  %39 = getelementptr inbounds nuw %struct.luaL_Stream, ptr %38, i32 0, i32 0
  %40 = load ptr, ptr %39, align 8, !tbaa !15
  %41 = call i32 @g_read(ptr noundef %37, ptr noundef %40, i32 noundef 2)
  store i32 %41, ptr %6, align 4, !tbaa !18
  %42 = load ptr, ptr %3, align 8, !tbaa !4
  %43 = load i32, ptr %6, align 4, !tbaa !18
  %44 = sub nsw i32 0, %43
  %45 = call i32 @lua_toboolean(ptr noundef %42, i32 noundef %44)
  %46 = icmp ne i32 %45, 0
  br i1 %46, label %47, label %49

47:                                               ; preds = %36
  %48 = load i32, ptr %6, align 4, !tbaa !18
  store i32 %48, ptr %2, align 4
  store i32 1, ptr %7, align 4
  br label %70

49:                                               ; preds = %36
  %50 = load i32, ptr %6, align 4, !tbaa !18
  %51 = icmp sgt i32 %50, 1
  br i1 %51, label %52, label %60

52:                                               ; preds = %49
  %53 = load ptr, ptr %3, align 8, !tbaa !4
  %54 = load ptr, ptr %3, align 8, !tbaa !4
  %55 = load i32, ptr %6, align 4, !tbaa !18
  %56 = sub nsw i32 0, %55
  %57 = add nsw i32 %56, 1
  %58 = call ptr @lua_tolstring(ptr noundef %54, i32 noundef %57, ptr noundef null)
  %59 = call i32 (ptr, ptr, ...) @luaL_error(ptr noundef %53, ptr noundef @.str.23, ptr noundef %58)
  store i32 %59, ptr %2, align 4
  store i32 1, ptr %7, align 4
  br label %70

60:                                               ; preds = %49
  %61 = load ptr, ptr %3, align 8, !tbaa !4
  %62 = call i32 @lua_toboolean(ptr noundef %61, i32 noundef -1001003)
  %63 = icmp ne i32 %62, 0
  br i1 %63, label %64, label %69

64:                                               ; preds = %60
  %65 = load ptr, ptr %3, align 8, !tbaa !4
  call void @lua_settop(ptr noundef %65, i32 noundef 0)
  %66 = load ptr, ptr %3, align 8, !tbaa !4
  call void @lua_pushvalue(ptr noundef %66, i32 noundef -1001001)
  %67 = load ptr, ptr %3, align 8, !tbaa !4
  %68 = call i32 @aux_close(ptr noundef %67)
  br label %69

69:                                               ; preds = %64, %60
  store i32 0, ptr %2, align 4
  store i32 1, ptr %7, align 4
  br label %70

70:                                               ; preds = %69, %52, %47, %17
  call void @llvm.lifetime.end.p0(i64 4, ptr %6) #8
  call void @llvm.lifetime.end.p0(i64 4, ptr %5) #8
  call void @llvm.lifetime.end.p0(i64 8, ptr %4) #8
  %71 = load i32, ptr %2, align 4
  ret i32 %71
}