; Function Attrs: nounwind uwtable
define internal i32 @io_readline(ptr noundef %0) #0 {
  %2 = alloca ptr, align 8
  %3 = tail call ptr @lua_touserdata(ptr noundef %0, i32 noundef -1001001) #9
  %4 = tail call i64 @lua_tointegerx(ptr noundef %0, i32 noundef -1001002, ptr noundef null) #9
  %5 = trunc i64 %4 to i32
  %6 = getelementptr inbounds nuw i8, ptr %3, i64 8
  %7 = load ptr, ptr %6, align 8, !tbaa !9
  %8 = icmp eq ptr %7, null
  br i1 %8, label %9, label %11

9:                                                ; preds = %1
  %10 = tail call i32 (ptr, ptr, ...) @luaL_error(ptr noundef %0, ptr noundef nonnull @.str.22) #9
  br label %31

11:                                               ; preds = %1
  tail call void @lua_settop(ptr noundef %0, i32 noundef 1) #9
  tail call void @luaL_checkstack(ptr noundef %0, i32 noundef %5, ptr noundef nonnull @.str.21) #9
  %.not28 = icmp slt i32 %5, 1
  br i1 %.not28, label %._crit_edge, label %.lr.ph

.lr.ph:                                           ; preds = %11, %.lr.ph
  %.029 = phi i32 [ %13, %.lr.ph ], [ 1, %11 ]
  %12 = sub nuw nsw i32 -1001003, %.029
  tail call void @lua_pushvalue(ptr noundef %0, i32 noundef %12) #9
  %13 = add nuw i32 %.029, 1
  %exitcond.not = icmp eq i32 %.029, %5
  br i1 %exitcond.not, label %._crit_edge, label %.lr.ph

._crit_edge:                                      ; preds = %.lr.ph, %11
  %14 = load ptr, ptr %3, align 8, !tbaa !11
  %15 = tail call fastcc i32 @g_read(ptr noundef %0, ptr noundef %14, i32 noundef 2)
  %16 = sub nsw i32 0, %15
  %17 = tail call i32 @lua_toboolean(ptr noundef %0, i32 noundef %16) #9
  %.not26 = icmp eq i32 %17, 0
  br i1 %.not26, label %18, label %31

18:                                               ; preds = %._crit_edge
  %19 = icmp sgt i32 %15, 1
  br i1 %19, label %20, label %24

20:                                               ; preds = %18
  %21 = sub nsw i32 1, %15
  %22 = tail call ptr @lua_tolstring(ptr noundef %0, i32 noundef %21, ptr noundef null) #9
  %23 = tail call i32 (ptr, ptr, ...) @luaL_error(ptr noundef %0, ptr noundef nonnull @.str.23, ptr noundef %22) #9
  br label %31

24:                                               ; preds = %18
  %25 = tail call i32 @lua_toboolean(ptr noundef %0, i32 noundef -1001003) #9
  %.not27 = icmp eq i32 %25, 0
  br i1 %.not27, label %31, label %26

26:                                               ; preds = %24
  tail call void @lua_settop(ptr noundef %0, i32 noundef 0) #9
  tail call void @lua_pushvalue(ptr noundef %0, i32 noundef -1001001) #9
  %27 = tail call ptr @luaL_checkudata(ptr noundef %0, i32 noundef 1, ptr noundef nonnull @.str.16) #9
  call void @llvm.lifetime.start.p0(i64 8, ptr nonnull %2)
  %28 = getelementptr inbounds nuw i8, ptr %27, i64 8
  %29 = load ptr, ptr %28, align 8, !tbaa !9
  store volatile ptr %29, ptr %2, align 8, !tbaa !13
  store ptr null, ptr %28, align 8, !tbaa !9
  %.0..0..0..0..0..0..i = load volatile ptr, ptr %2, align 8, !tbaa !13
  %30 = tail call i32 %.0..0..0..0..0..0..i(ptr noundef %0) #9
  call void @llvm.lifetime.end.p0(i64 8, ptr nonnull %2)
  br label %31

31:                                               ; preds = %24, %26, %._crit_edge, %20, %9
  %.025 = phi i32 [ %10, %9 ], [ %23, %20 ], [ %15, %._crit_edge ], [ 0, %26 ], [ 0, %24 ]
  ret i32 %.025
}